target datalayout = "e-m:e-p270:32:32-p271:32:32-p272:64:64-i64:64-i128:128-f80:128-n8:16:32:64-S128"
target triple = "x86_64-pc-linux-gnu"

; Function Attrs: inlinehint nounwind uwtable
define internal ptr @ff_vlc_init_tables(ptr noundef %0, i32 noundef %1, i32 noundef %2, ptr noundef %3, i32 noundef %4, i32 noundef %5, ptr noundef %6, i32 noundef %7, i32 noundef %8, i32 noundef %9) #6 {
  %11 = alloca ptr, align 8
  %12 = alloca i32, align 4
  %13 = alloca i32, align 4
  %14 = alloca ptr, align 8
  %15 = alloca i32, align 4
  %16 = alloca i32, align 4
  %17 = alloca ptr, align 8
  %18 = alloca i32, align 4
  %19 = alloca i32, align 4
  %20 = alloca i32, align 4
  store ptr %0, ptr %11, align 8, !tbaa !82
  store i32 %1, ptr %12, align 4, !tbaa !36
  store i32 %2, ptr %13, align 4, !tbaa !36
  store ptr %3, ptr %14, align 8, !tbaa !87
  store i32 %4, ptr %15, align 4, !tbaa !36
  store i32 %5, ptr %16, align 4, !tbaa !36
  store ptr %6, ptr %17, align 8, !tbaa !87
  store i32 %7, ptr %18, align 4, !tbaa !36
  store i32 %8, ptr %19, align 4, !tbaa !36
  store i32 %9, ptr %20, align 4, !tbaa !36
  %21 = load ptr, ptr %11, align 8, !tbaa !82
  %22 = load i32, ptr %12, align 4, !tbaa !36
  %23 = load i32, ptr %13, align 4, !tbaa !36
  %24 = load ptr, ptr %14, align 8, !tbaa !87
  %25 = load i32, ptr %15, align 4, !tbaa !36
  %26 = load i32, ptr %16, align 4, !tbaa !36
  %27 = load ptr, ptr %17, align 8, !tbaa !87
  %28 = load i32, ptr %18, align 4, !tbaa !36
  %29 = load i32, ptr %19, align 4, !tbaa !36
  %30 = load i32, ptr %20, align 4, !tbaa !36
  %31 = call ptr @ff_vlc_init_tables_sparse(ptr noundef %21, i32 noundef %22, i32 noundef %23, ptr noundef %24, i32 noundef %25, i32 noundef %26, ptr noundef %27, i32 noundef %28, i32 noundef %29, ptr noundef null, i32 noundef 0, i32 noundef 0, i32 noundef %30)
  ret ptr %31
}

; Function Attrs: nounwind uwtable
define internal ptr @gen_vlc(ptr noundef %0, i32 noundef %1, ptr noundef %2) #1 {
  %4 = alloca ptr, align 8
  %5 = alloca i32, align 4
  %6 = alloca ptr, align 8
  %7 = alloca [17 x i32], align 16
  %8 = alloca [18 x i32], align 16
  %9 = alloca [864 x i32], align 16
  %10 = alloca i32, align 4
  %11 = alloca i32, align 4
  %12 = alloca i32, align 4
  store ptr %0, ptr %4, align 8, !tbaa !46
  store i32 %1, ptr %5, align 4, !tbaa !36
  store ptr %2, ptr %6, align 8, !tbaa !82
  call void @llvm.lifetime.start.p0(i64 68, ptr %7) #11
  call void @llvm.memset.p0.i64(ptr align 16 %7, i8 0, i64 68, i1 false)
  call void @llvm.lifetime.start.p0(i64 72, ptr %8) #11
  call void @llvm.lifetime.start.p0(i64 3456, ptr %9) #11
  call void @llvm.lifetime.start.p0(i64 4, ptr %10) #11
  store i32 0, ptr %10, align 4, !tbaa !36
  br label %13

13:                                               ; preds = %28, %3
  %14 = load i32, ptr %10, align 4, !tbaa !36
  %15 = load i32, ptr %5, align 4, !tbaa !36
  %16 = icmp slt i32 %14, %15
  br i1 %16, label %18, label %17

17:                                               ; preds = %13
  call void @llvm.lifetime.end.p0(i64 4, ptr %10) #11
  br label %31

18:                                               ; preds = %13
  %19 = load ptr, ptr %4, align 8, !tbaa !46
  %20 = load i32, ptr %10, align 4, !tbaa !36
  %21 = sext i32 %20 to i64
  %22 = getelementptr inbounds i8, ptr %19, i64 %21
  %23 = load i8, ptr %22, align 1, !tbaa !48
  %24 = zext i8 %23 to i64
  %25 = getelementptr inbounds nuw [17 x i32], ptr %7, i64 0, i64 %24
  %26 = load i32, ptr %25, align 4, !tbaa !36
  %27 = add nsw i32 %26, 1
  store i32 %27, ptr %25, align 4, !tbaa !36
  br label %28

28:                                               ; preds = %18
  %29 = load i32, ptr %10, align 4, !tbaa !36
  %30 = add nsw i32 %29, 1
  store i32 %30, ptr %10, align 4, !tbaa !36
  br label %13, !llvm.loop !84

31:                                               ; preds = %17
  %32 = getelementptr inbounds [17 x i32], ptr %7, i64 0, i64 0
  store i32 0, ptr %32, align 16, !tbaa !36
  %33 = getelementptr inbounds [18 x i32], ptr %8, i64 0, i64 0
  store i32 0, ptr %33, align 16, !tbaa !36
  call void @llvm.lifetime.start.p0(i64 4, ptr %11) #11
  store i32 0, ptr %11, align 4, !tbaa !36
  br label %34

34:                                               ; preds = %53, %31
  %35 = load i32, ptr %11, align 4, !tbaa !36
  %36 = icmp slt i32 %35, 17
  br i1 %36, label %38, label %37

37:                                               ; preds = %34
  call void @llvm.lifetime.end.p0(i64 4, ptr %11) #11
  br label %56

38:                                               ; preds = %34
  %39 = load i32, ptr %11, align 4, !tbaa !36
  %40 = sext i32 %39 to i64
  %41 = getelementptr inbounds [18 x i32], ptr %8, i64 0, i64 %40
  %42 = load i32, ptr %41, align 4, !tbaa !36
  %43 = load i32, ptr %11, align 4, !tbaa !36
  %44 = sext i32 %43 to i64
  %45 = getelementptr inbounds [17 x i32], ptr %7, i64 0, i64 %44
  %46 = load i32, ptr %45, align 4, !tbaa !36
  %47 = add i32 %42, %46
  %48 = shl i32 %47, 1
  %49 = load i32, ptr %11, align 4, !tbaa !36
  %50 = add nsw i32 %49, 1
  %51 = sext i32 %50 to i64
  %52 = getelementptr inbounds [18 x i32], ptr %8, i64 0, i64 %51
  store i32 %48, ptr %52, align 4, !tbaa !36
  br label %53

53:                                               ; preds = %38
  %54 = load i32, ptr %11, align 4, !tbaa !36
  %55 = add nsw i32 %54, 1
  store i32 %55, ptr %11, align 4, !tbaa !36
  br label %34, !llvm.loop !85

56:                                               ; preds = %37
  call void @llvm.lifetime.start.p0(i64 4, ptr %12) #11
  store i32 0, ptr %12, align 4, !tbaa !36
  br label %57

57:                                               ; preds = %75, %56
  %58 = load i32, ptr %12, align 4, !tbaa !36
  %59 = load i32, ptr %5, align 4, !tbaa !36
  %60 = icmp slt i32 %58, %59
  br i1 %60, label %62, label %61

61:                                               ; preds = %57
  call void @llvm.lifetime.end.p0(i64 4, ptr %12) #11
  br label %78

62:                                               ; preds = %57
  %63 = load ptr, ptr %4, align 8, !tbaa !46
  %64 = load i32, ptr %12, align 4, !tbaa !36
  %65 = sext i32 %64 to i64
  %66 = getelementptr inbounds i8, ptr %63, i64 %65
  %67 = load i8, ptr %66, align 1, !tbaa !48
  %68 = zext i8 %67 to i64
  %69 = getelementptr inbounds nuw [18 x i32], ptr %8, i64 0, i64 %68
  %70 = load i32, ptr %69, align 4, !tbaa !36
  %71 = add i32 %70, 1
  store i32 %71, ptr %69, align 4, !tbaa !36
  %72 = load i32, ptr %12, align 4, !tbaa !36
  %73 = sext i32 %72 to i64
  %74 = getelementptr inbounds [864 x i32], ptr %9, i64 0, i64 %73
  store i32 %70, ptr %74, align 4, !tbaa !36
  br label %75

75:                                               ; preds = %62
  %76 = load i32, ptr %12, align 4, !tbaa !36
  %77 = add nsw i32 %76, 1
  store i32 %77, ptr %12, align 4, !tbaa !36
  br label %57, !llvm.loop !86

78:                                               ; preds = %61
  %79 = load ptr, ptr %6, align 8, !tbaa !82
  %80 = load i32, ptr %5, align 4, !tbaa !36
  %81 = load ptr, ptr %4, align 8, !tbaa !46
  %82 = getelementptr inbounds [864 x i32], ptr %9, i64 0, i64 0
  %83 = call ptr @ff_vlc_init_tables(ptr noundef %79, i32 noundef 9, i32 noundef %80, ptr noundef %81, i32 noundef 1, i32 noundef 1, ptr noundef %82, i32 noundef 4, i32 noundef 4, i32 noundef 0)
  call void @llvm.lifetime.end.p0(i64 3456, ptr %9) #11
  call void @llvm.lifetime.end.p0(i64 72, ptr %8) #11
  call void @llvm.lifetime.end.p0(i64 68, ptr %7) #11
  ret ptr %83
}