; Function Attrs: nounwind uwtable
define internal fastcc ptr @gen_vlc(ptr noundef %0, i32 noundef range(i32 32, 865) %1, ptr noundef nonnull %2) unnamed_addr #1 {
  %4 = alloca [17 x i32], align 16
  %5 = alloca [18 x i32], align 16
  %6 = alloca [864 x i32], align 16
  call void @llvm.lifetime.start.p0(i64 68, ptr nonnull %4) #16
  call void @llvm.memset.p0.i64(ptr noundef nonnull align 16 dereferenceable(68) %4, i8 0, i64 68, i1 false)
  call void @llvm.lifetime.start.p0(i64 72, ptr nonnull %5) #16
  call void @llvm.lifetime.start.p0(i64 3456, ptr nonnull %6) #16
  %wide.trip.count = zext nneg i32 %1 to i64
  br label %8

7:                                                ; preds = %8
  store i32 0, ptr %4, align 16, !tbaa !40
  store i32 0, ptr %5, align 16, !tbaa !40
  br label %15

8:                                                ; preds = %3, %8
  %indvars.iv = phi i64 [ 0, %3 ], [ %indvars.iv.next, %8 ]
  %9 = getelementptr inbounds nuw i8, ptr %0, i64 %indvars.iv
  %10 = load i8, ptr %9, align 1, !tbaa !42
  %11 = zext i8 %10 to i64
  %12 = getelementptr inbounds nuw [17 x i32], ptr %4, i64 0, i64 %11
  %13 = load i32, ptr %12, align 4, !tbaa !40
  %14 = add nsw i32 %13, 1
  store i32 %14, ptr %12, align 4, !tbaa !40
  %indvars.iv.next = add nuw nsw i64 %indvars.iv, 1
  %exitcond.not = icmp eq i64 %indvars.iv.next, %wide.trip.count
  br i1 %exitcond.not, label %7, label %8, !llvm.loop !90

15:                                               ; preds = %7, %15
  %16 = phi i32 [ 0, %7 ], [ %20, %15 ]
  %indvars.iv25 = phi i64 [ 0, %7 ], [ %indvars.iv.next26, %15 ]
  %17 = getelementptr inbounds nuw [17 x i32], ptr %4, i64 0, i64 %indvars.iv25
  %18 = load i32, ptr %17, align 4, !tbaa !40
  %19 = add i32 %18, %16
  %20 = shl i32 %19, 1
  %indvars.iv.next26 = add nuw nsw i64 %indvars.iv25, 1
  %21 = getelementptr inbounds nuw [18 x i32], ptr %5, i64 0, i64 %indvars.iv.next26
  store i32 %20, ptr %21, align 4, !tbaa !40
  %exitcond28.not = icmp eq i64 %indvars.iv.next26, 17
  br i1 %exitcond28.not, label %.preheader, label %15, !llvm.loop !91

22:                                               ; preds = %.preheader
  %23 = call ptr @ff_vlc_init_tables_sparse(ptr noundef nonnull %2, i32 noundef 9, i32 noundef range(i32 32, 865) %1, ptr noundef nonnull %0, i32 noundef 1, i32 noundef 1, ptr noundef nonnull %6, i32 noundef 4, i32 noundef 4, ptr noundef null, i32 noundef 0, i32 noundef 0, i32 noundef 0) #16
  call void @llvm.lifetime.end.p0(i64 3456, ptr nonnull %6) #16
  call void @llvm.lifetime.end.p0(i64 72, ptr nonnull %5) #16
  call void @llvm.lifetime.end.p0(i64 68, ptr nonnull %4) #16
  ret ptr %23

.preheader:                                       ; preds = %15, %.preheader
  %indvars.iv29 = phi i64 [ %indvars.iv.next30, %.preheader ], [ 0, %15 ]
  %24 = getelementptr inbounds nuw i8, ptr %0, i64 %indvars.iv29
  %25 = load i8, ptr %24, align 1, !tbaa !42
  %26 = zext i8 %25 to i64
  %27 = getelementptr inbounds nuw [18 x i32], ptr %5, i64 0, i64 %26
  %28 = load i32, ptr %27, align 4, !tbaa !40
  %29 = add i32 %28, 1
  store i32 %29, ptr %27, align 4, !tbaa !40
  %30 = getelementptr inbounds nuw [864 x i32], ptr %6, i64 0, i64 %indvars.iv29
  store i32 %28, ptr %30, align 4, !tbaa !40
  %indvars.iv.next30 = add nuw nsw i64 %indvars.iv29, 1
  %exitcond33.not = icmp eq i64 %indvars.iv.next30, %wide.trip.count
  br i1 %exitcond33.not, label %22, label %.preheader, !llvm.loop !92
}